target datalayout = "e-m:e-p270:32:32-p271:32:32-p272:64:64-i64:64-i128:128-f80:128-n8:16:32:64-S128"
target triple = "x86_64-unknown-linux-gnu"

%struct.stbi__zbuf = type { ptr, ptr, i32, i32, ptr, ptr, ptr, i32, %struct.stbi__zhuffman, %struct.stbi__zhuffman }
%struct.stbi__zhuffman = type { [512 x i16], [16 x i16], [17 x i32], [16 x i16], [288 x i8], [288 x i16] }

; Function Attrs: mustprogress nounwind uwtable
define internal noundef ptr @_ZL12stbi__mallocm(i64 noundef %size) #0 {
entry:
  %size.addr = alloca i64, align 8
  store i64 %size, ptr %size.addr, align 8
  %0 = load i64, ptr %size.addr, align 8
  %call = call noalias ptr @malloc(i64 noundef %0) #25
  ret ptr %call
}

; Function Attrs: mustprogress uwtable
define hidden ptr @assimp_stbi_zlib_decode_malloc_guesssize(ptr noundef %buffer, i32 noundef %len, i32 noundef %initial_size, ptr noundef %outlen) #5 {
entry:
  %retval = alloca ptr, align 8
  %buffer.addr = alloca ptr, align 8
  %len.addr = alloca i32, align 4
  %initial_size.addr = alloca i32, align 4
  %outlen.addr = alloca ptr, align 8
  %a = alloca %struct.stbi__zbuf, align 8
  %p = alloca ptr, align 8
  store ptr %buffer, ptr %buffer.addr, align 8
  store i32 %len, ptr %len.addr, align 4
  store i32 %initial_size, ptr %initial_size.addr, align 4
  store ptr %outlen, ptr %outlen.addr, align 8
  %0 = load i32, ptr %initial_size.addr, align 4
  %conv = sext i32 %0 to i64
  %call = call noundef ptr @_ZL12stbi__mallocm(i64 noundef %conv)
  store ptr %call, ptr %p, align 8
  %1 = load ptr, ptr %p, align 8
  %cmp = icmp eq ptr %1, null
  br i1 %cmp, label %if.then, label %if.end

if.then:                                          ; preds = %entry
  store ptr null, ptr %retval, align 8
  br label %return

if.end:                                           ; preds = %entry
  %2 = load ptr, ptr %buffer.addr, align 8
  %zbuffer = getelementptr inbounds %struct.stbi__zbuf, ptr %a, i32 0, i32 0
  store ptr %2, ptr %zbuffer, align 8
  %3 = load ptr, ptr %buffer.addr, align 8
  %4 = load i32, ptr %len.addr, align 4
  %idx.ext = sext i32 %4 to i64
  %add.ptr = getelementptr inbounds i8, ptr %3, i64 %idx.ext
  %zbuffer_end = getelementptr inbounds %struct.stbi__zbuf, ptr %a, i32 0, i32 1
  store ptr %add.ptr, ptr %zbuffer_end, align 8
  %5 = load ptr, ptr %p, align 8
  %6 = load i32, ptr %initial_size.addr, align 4
  %call1 = call noundef i32 @_ZL13stbi__do_zlibP10stbi__zbufPciii(ptr noundef %a, ptr noundef %5, i32 noundef %6, i32 noundef 1, i32 noundef 1)
  %tobool = icmp ne i32 %call1, 0
  br i1 %tobool, label %if.then2, label %if.else

if.then2:                                         ; preds = %if.end
  %7 = load ptr, ptr %outlen.addr, align 8
  %tobool3 = icmp ne ptr %7, null
  br i1 %tobool3, label %if.then4, label %if.end6

if.then4:                                         ; preds = %if.then2
  %zout = getelementptr inbounds %struct.stbi__zbuf, ptr %a, i32 0, i32 4
  %8 = load ptr, ptr %zout, align 8
  %zout_start = getelementptr inbounds %struct.stbi__zbuf, ptr %a, i32 0, i32 5
  %9 = load ptr, ptr %zout_start, align 8
  %sub.ptr.lhs.cast = ptrtoint ptr %8 to i64
  %sub.ptr.rhs.cast = ptrtoint ptr %9 to i64
  %sub.ptr.sub = sub i64 %sub.ptr.lhs.cast, %sub.ptr.rhs.cast
  %conv5 = trunc i64 %sub.ptr.sub to i32
  %10 = load ptr, ptr %outlen.addr, align 8
  store i32 %conv5, ptr %10, align 4
  br label %if.end6

if.end6:                                          ; preds = %if.then4, %if.then2
  %zout_start7 = getelementptr inbounds %struct.stbi__zbuf, ptr %a, i32 0, i32 5
  %11 = load ptr, ptr %zout_start7, align 8
  store ptr %11, ptr %retval, align 8
  br label %return

if.else:                                          ; preds = %if.end
  %zout_start8 = getelementptr inbounds %struct.stbi__zbuf, ptr %a, i32 0, i32 5
  %12 = load ptr, ptr %zout_start8, align 8
  call void @free(ptr noundef %12) #3
  store ptr null, ptr %retval, align 8
  br label %return

return:                                           ; preds = %if.else, %if.end6, %if.then
  %13 = load ptr, ptr %retval, align 8
  ret ptr %13
}